Certificate:
    Data:
        Version: 3 (0x2)
        Serial Number: 287 (0x11f)
        Signature Algorithm: sha1WithRSAEncryption
        Issuer: C=AU, ST=Some-State, O=Internet Widgits Pty Ltd
        Validity
            Not Before: Feb 14 03:31:03 2011 GMT
            Not After : Feb 14 03:31:03 2012 GMT
        Subject: C=AU, ST=Some-State, O=Internet Widgits Pty Ltd, CN=client
        Subject Public Key Info:
            Public Key Algorithm: rsaEncryption
                Public-Key: (1024 bit)
                Modulus:
                    00:bc:79:1f:cc:db:35:08:92:bb:84:2a:7d:a4:eb:
                    c3:7b:d5:a2:93:c8:09:cc:80:2c:b9:1b:fa:07:fc:
                    d1:6f:77:35:37:75:c1:42:06:a0:02:4f:74:60:bd:
                    ec:d9:23:7e:f7:af:aa:10:a1:3f:50:6e:e5:33:40:
                    53:1b:60:fd:5b:ea:c1:d9:e7:5e:11:86:0a:5e:8d:
                    b9:78:62:1d:2b:92:14:49:40:c7:35:bb:8d:ea:87:
                    a6:76:fb:21:da:54:69:d3:ef:89:6d:bd:a9:fc:bb:
                    f7:02:58:41:3a:04:c5:bb:ba:96:ee:a2:3e:6d:bd:
                    f7:c6:5a:3f:4f:01:dd:08:45
                Exponent: 65537 (0x10001)
        X509v3 extensions:
            X509v3 Basic Constraints: 
                CA:FALSE
            Netscape Comment: 
                OpenSSL Generated Certificate
            X509v3 Subject Key Identifier: 
                7F:6B:DA:2A:20:F2:51:21:5F:07:8C:72:E1:D6:C1:12:A4:64:B3:A7
            X509v3 Authority Key Identifier: 
                keyid:8C:FA:EA:1A:47:A7:52:18:55:D6:51:E3:80:19:EA:FB:DC:E5:EB:06

    Signature Algorithm: sha1WithRSAEncryption
        17:bc:44:33:59:3b:3b:5d:1d:bd:4d:61:51:dd:ec:21:07:f6:
        b4:9c:af:77:c4:34:ca:9b:fe:5e:3e:77:e9:e5:18:af:51:b2:
        be:7c:68:07:2d:67:86:34:c3:27:ad:5a:08:d2:26:87:bf:1b:
        c0:5d:c0:e5:a9:d8:24:6e:c2:53:a9:97:02:f4:1f:c5:73:ce:
        fa:b6:5f:cf:d2:d9:9a:70:59:dd:7d:6e:3b:c9:0c:9c:db:93:
        0a:4f:64:61:6f:00:3a:5d:f8:6f:54:34:65:45:35:d6:68:6b:
        b4:ff:65:0b:e6:ea:37:32:8f:56:f6:95:09:f8:a2:d2:d9:a4:
        47:0f
-----BEGIN CERTIFICATE-----
MIICjTCCAfagAwIBAgICAR8wDQYJKoZIhvcNAQEFBQAwRTELMAkGA1UEBhMCQVUx
EzARBgNVBAgMClNvbWUtU3RhdGUxITAfBgNVBAoMGEludGVybmV0IFdpZGdpdHMg
UHR5IEx0ZDAeFw0xMTAyMTQwMzMxMDNaFw0xMjAyMTQwMzMxMDNaMFYxCzAJBgNV
BAYTAkFVMRMwEQYDVQQIDApTb21lLVN0YXRlMSEwHwYDVQQKDBhJbnRlcm5ldCBX
aWRnaXRzIFB0eSBMdGQxDzANBgNVBAMMBmNsaWVudDCBnzANBgkqhkiG9w0BAQEF
AAOBjQAwgYkCgYEAvHkfzNs1CJK7hCp9pOvDe9Wik8gJzIAsuRv6B/zRb3c1N3XB
QgagAk90YL3s2SN+96+qEKE/UG7lM0BTG2D9W+rB2edeEYYKXo25eGIdK5IUSUDH
NbuN6oemdvsh2lRp0++Jbb2p/Lv3AlhBOgTFu7qW7qI+bb33xlo/TwHdCEUCAwEA
AaN7MHkwCQYDVR0TBAIwADAsBglghkgBhvhCAQ0EHxYdT3BlblNTTCBHZW5lcmF0
ZWQgQ2VydGlmaWNhdGUwHQYDVR0OBBYEFH9r2iog8lEhXweMcuHWwRKkZLOnMB8G
A1UdIwQYMBaAFIz66hpHp1IYVdZR44AZ6vvc5esGMA0GCSqGSIb3DQEBBQUAA4GB
ABe8RDNZOztdHb1NYVHd7CEH9rScr3fENMqb/l4+d+nlGK9Rsr58aActZ4Y0wyet
WgjSJoe/G8BdwOWp2CRuwlOplwL0H8Vzzvq2X8/S2ZpwWd19bjvJDJzbkwpPZGFv
ADpd+G9UNGVFNdZoa7T/ZQvm6jcyj1b2lQn4otLZpEcP
-----END CERTIFICATE-----
